target datalayout = "e-m:e-p270:32:32-p271:32:32-p272:64:64-i64:64-i128:128-f80:128-n8:16:32:64-S128"
target triple = "x86_64-pc-linux-gnu"

%struct.buf_t = type { i32, ptr, i32, i32, i8, i8 }

@.str.1 = private unnamed_addr constant [7 x i8] c"pack.c\00", align 1
@.str.8 = private unnamed_addr constant [42 x i8] c"%s: Buffer size limit exceeded (%lu > %u)\00", align 1
@__func__.try_grow_buf = private unnamed_addr constant [13 x i8] c"try_grow_buf\00", align 1
@.str.13 = private unnamed_addr constant [4 x i8] c"%Lf\00", align 1

; Function Attrs: nounwind uwtable
define dso_local i32 @try_grow_buf(ptr noundef %0, i32 noundef %1) #0 {
  %3 = alloca i32, align 4
  %4 = alloca ptr, align 8
  %5 = alloca i32, align 4
  %6 = alloca i64, align 8
  %7 = alloca i32, align 4
  store ptr %0, ptr %4, align 8
  store i32 %1, ptr %5, align 4
  call void @llvm.lifetime.start.p0(i64 8, ptr %6) #9
  %8 = load ptr, ptr %4, align 8
  %9 = getelementptr inbounds nuw %struct.buf_t, ptr %8, i32 0, i32 2
  %10 = load i32, ptr %9, align 8
  %11 = add i32 %10, 16384
  %12 = zext i32 %11 to i64
  store i64 %12, ptr %6, align 8
  %13 = load i32, ptr %5, align 4
  %14 = icmp uge i32 %13, 16384
  br i1 %14, label %15, label %20

15:                                               ; preds = %2
  %16 = load i32, ptr %5, align 4
  %17 = zext i32 %16 to i64
  %18 = load i64, ptr %6, align 8
  %19 = add i64 %18, %17
  store i64 %19, ptr %6, align 8
  br label %20

20:                                               ; preds = %15, %2
  %21 = load ptr, ptr %4, align 8
  %22 = getelementptr inbounds nuw %struct.buf_t, ptr %21, i32 0, i32 4
  %23 = load i8, ptr %22, align 8, !range !8, !noundef !9
  %24 = trunc i8 %23 to i1
  br i1 %24, label %30, label %25

25:                                               ; preds = %20
  %26 = load ptr, ptr %4, align 8
  %27 = getelementptr inbounds nuw %struct.buf_t, ptr %26, i32 0, i32 5
  %28 = load i8, ptr %27, align 1, !range !8, !noundef !9
  %29 = trunc i8 %28 to i1
  br i1 %29, label %30, label %31

30:                                               ; preds = %25, %20
  store i32 22, ptr %3, align 4
  store i32 1, ptr %7, align 4
  br label %49

31:                                               ; preds = %25
  %32 = load i64, ptr %6, align 8
  %33 = icmp ugt i64 %32, 4294901760
  br i1 %33, label %34, label %37

34:                                               ; preds = %31
  %35 = load i64, ptr %6, align 8
  %36 = call i32 (ptr, ...) @error(ptr noundef @.str.8, ptr noundef @__func__.try_grow_buf, i64 noundef %35, i32 noundef -65536)
  store i32 9205, ptr %3, align 4
  store i32 1, ptr %7, align 4
  br label %49

37:                                               ; preds = %31
  %38 = load ptr, ptr %4, align 8
  %39 = getelementptr inbounds nuw %struct.buf_t, ptr %38, i32 0, i32 1
  %40 = load i64, ptr %6, align 8
  %41 = call ptr @slurm_xrecalloc(ptr noundef %39, i64 noundef 1, i64 noundef %40, i1 noundef zeroext true, i1 noundef zeroext true, ptr noundef @.str.1, i32 noundef 238, ptr noundef @__func__.try_grow_buf)
  %42 = icmp ne ptr %41, null
  br i1 %42, label %44, label %43

43:                                               ; preds = %37
  store i32 12, ptr %3, align 4
  store i32 1, ptr %7, align 4
  br label %49

44:                                               ; preds = %37
  %45 = load i64, ptr %6, align 8
  %46 = trunc i64 %45 to i32
  %47 = load ptr, ptr %4, align 8
  %48 = getelementptr inbounds nuw %struct.buf_t, ptr %47, i32 0, i32 2
  store i32 %46, ptr %48, align 8
  store i32 0, ptr %3, align 4
  store i32 1, ptr %7, align 4
  br label %49

49:                                               ; preds = %44, %43, %34, %30
  call void @llvm.lifetime.end.p0(i64 8, ptr %6) #9
  %50 = load i32, ptr %3, align 4
  ret i32 %50
}

; Function Attrs: nounwind uwtable
define dso_local i32 @try_grow_buf_remaining(ptr noundef %0, i32 noundef %1) #0 {
  %3 = alloca i32, align 4
  %4 = alloca ptr, align 8
  %5 = alloca i32, align 4
  store ptr %0, ptr %4, align 8
  store i32 %1, ptr %5, align 4
  %6 = load ptr, ptr %4, align 8
  %7 = getelementptr inbounds nuw %struct.buf_t, ptr %6, i32 0, i32 2
  %8 = load i32, ptr %7, align 8
  %9 = load ptr, ptr %4, align 8
  %10 = getelementptr inbounds nuw %struct.buf_t, ptr %9, i32 0, i32 3
  %11 = load i32, ptr %10, align 4
  %12 = sub i32 %8, %11
  %13 = load i32, ptr %5, align 4
  %14 = icmp ult i32 %12, %13
  br i1 %14, label %15, label %19

15:                                               ; preds = %2
  %16 = load ptr, ptr %4, align 8
  %17 = load i32, ptr %5, align 4
  %18 = call i32 @try_grow_buf(ptr noundef %16, i32 noundef %17)
  store i32 %18, ptr %3, align 4
  br label %20

19:                                               ; preds = %2
  store i32 0, ptr %3, align 4
  br label %20

20:                                               ; preds = %19, %15
  %21 = load i32, ptr %3, align 4
  ret i32 %21
}

; Function Attrs: inlinehint nounwind uwtable
define internal i32 @__bswap_32(i32 noundef %0) #8 {
  %2 = alloca i32, align 4
  store i32 %0, ptr %2, align 4
  %3 = load i32, ptr %2, align 4
  %4 = and i32 %3, -16777216
  %5 = lshr i32 %4, 24
  %6 = load i32, ptr %2, align 4
  %7 = and i32 %6, 16711680
  %8 = lshr i32 %7, 8
  %9 = or i32 %5, %8
  %10 = load i32, ptr %2, align 4
  %11 = and i32 %10, 65280
  %12 = shl i32 %11, 8
  %13 = or i32 %9, %12
  %14 = load i32, ptr %2, align 4
  %15 = and i32 %14, 255
  %16 = shl i32 %15, 24
  %17 = or i32 %13, %16
  ret i32 %17
}

; Function Attrs: nounwind uwtable
define dso_local void @packlongdouble(x86_fp80 noundef %0, ptr noundef %1) #0 {
  %3 = alloca x86_fp80, align 16
  %4 = alloca ptr, align 8
  %5 = alloca [256 x i8], align 16
  %6 = alloca i32, align 4
  store x86_fp80 %0, ptr %3, align 16
  store ptr %1, ptr %4, align 8
  call void @llvm.lifetime.start.p0(i64 256, ptr %5) #9
  %7 = getelementptr inbounds [256 x i8], ptr %5, i64 0, i64 0
  %8 = load x86_fp80, ptr %3, align 16
  %9 = call i32 (ptr, i64, ptr, ...) @snprintf(ptr noundef %7, i64 noundef 256, ptr noundef @.str.13, x86_fp80 noundef %8) #9
  br label %10

10:                                               ; preds = %2
  call void @llvm.lifetime.start.p0(i64 4, ptr %6) #9
  store i32 0, ptr %6, align 4
  %11 = getelementptr inbounds [256 x i8], ptr %5, i64 0, i64 0
  %12 = call i64 @strlen(ptr noundef %11) #11
  %13 = trunc i64 %12 to i32
  %14 = add i32 %13, 1
  store i32 %14, ptr %6, align 4
  %15 = getelementptr inbounds [256 x i8], ptr %5, i64 0, i64 0
  %16 = load i32, ptr %6, align 4
  %17 = load ptr, ptr %4, align 8
  call void @packmem(ptr noundef %15, i32 noundef %16, ptr noundef %17)
  call void @llvm.lifetime.end.p0(i64 4, ptr %6) #9
  br label %18

18:                                               ; preds = %10
  br label %19

19:                                               ; preds = %18
  call void @llvm.lifetime.end.p0(i64 256, ptr %5) #9
  ret void
}

; Function Attrs: nounwind uwtable
define dso_local void @pack32(i32 noundef %0, ptr noundef %1) #0 {
  %3 = alloca i32, align 4
  %4 = alloca ptr, align 8
  %5 = alloca i32, align 4
  %6 = alloca i32, align 4
  store i32 %0, ptr %3, align 4
  store ptr %1, ptr %4, align 8
  call void @llvm.lifetime.start.p0(i64 4, ptr %5) #9
  %7 = load i32, ptr %3, align 4
  %8 = call i32 @__bswap_32(i32 noundef %7)
  store i32 %8, ptr %5, align 4
  %9 = load ptr, ptr %4, align 8
  %10 = call i32 @try_grow_buf_remaining(ptr noundef %9, i32 noundef 4)
  %11 = icmp ne i32 %10, 0
  br i1 %11, label %12, label %13

12:                                               ; preds = %2
  store i32 1, ptr %6, align 4
  br label %28

13:                                               ; preds = %2
  %14 = load ptr, ptr %4, align 8
  %15 = getelementptr inbounds nuw %struct.buf_t, ptr %14, i32 0, i32 1
  %16 = load ptr, ptr %15, align 8
  %17 = load ptr, ptr %4, align 8
  %18 = getelementptr inbounds nuw %struct.buf_t, ptr %17, i32 0, i32 3
  %19 = load i32, ptr %18, align 4
  %20 = zext i32 %19 to i64
  %21 = getelementptr inbounds nuw i8, ptr %16, i64 %20
  call void @llvm.memcpy.p0.p0.i64(ptr align 1 %21, ptr align 4 %5, i64 4, i1 false)
  %22 = load ptr, ptr %4, align 8
  %23 = getelementptr inbounds nuw %struct.buf_t, ptr %22, i32 0, i32 3
  %24 = load i32, ptr %23, align 4
  %25 = zext i32 %24 to i64
  %26 = add i64 %25, 4
  %27 = trunc i64 %26 to i32
  store i32 %27, ptr %23, align 4
  store i32 0, ptr %6, align 4
  br label %28

28:                                               ; preds = %13, %12
  call void @llvm.lifetime.end.p0(i64 4, ptr %5) #9
  %29 = load i32, ptr %6, align 4
  switch i32 %29, label %31 [
    i32 0, label %30
    i32 1, label %30
  ]

30:                                               ; preds = %28, %28
  ret void

31:                                               ; preds = %28
  unreachable
}

; Function Attrs: nounwind uwtable
define dso_local void @packlongdouble_array(ptr noundef %0, i32 noundef %1, ptr noundef %2) #0 {
  %4 = alloca ptr, align 8
  %5 = alloca i32, align 4
  %6 = alloca ptr, align 8
  %7 = alloca i32, align 4
  store ptr %0, ptr %4, align 8
  store i32 %1, ptr %5, align 4
  store ptr %2, ptr %6, align 8
  call void @llvm.lifetime.start.p0(i64 4, ptr %7) #9
  store i32 0, ptr %7, align 4
  %8 = load i32, ptr %5, align 4
  %9 = load ptr, ptr %6, align 8
  call void @pack32(i32 noundef %8, ptr noundef %9)
  store i32 0, ptr %7, align 4
  br label %10

10:                                               ; preds = %21, %3
  %11 = load i32, ptr %7, align 4
  %12 = load i32, ptr %5, align 4
  %13 = icmp ult i32 %11, %12
  br i1 %13, label %14, label %24

14:                                               ; preds = %10
  %15 = load ptr, ptr %4, align 8
  %16 = load i32, ptr %7, align 4
  %17 = zext i32 %16 to i64
  %18 = getelementptr inbounds nuw x86_fp80, ptr %15, i64 %17
  %19 = load x86_fp80, ptr %18, align 16
  %20 = load ptr, ptr %6, align 8
  call void @packlongdouble(x86_fp80 noundef %19, ptr noundef %20)
  br label %21

21:                                               ; preds = %14
  %22 = load i32, ptr %7, align 4
  %23 = add i32 %22, 1
  store i32 %23, ptr %7, align 4
  br label %10, !llvm.loop !23

24:                                               ; preds = %10
  call void @llvm.lifetime.end.p0(i64 4, ptr %7) #9
  ret void
}